; Function Attrs: mustprogress nounwind uwtable
define hidden noundef ptr @_ZNK11Instruction10exact_typeEv(ptr noundef nonnull align 8 dereferenceable(96) %0) unnamed_addr #1 align 2 {
  %2 = load ptr, ptr %0, align 8
  %3 = getelementptr inbounds i8, ptr %2, i64 464
  %4 = load ptr, ptr %3, align 8
  %5 = tail call noundef ptr %4(ptr noundef nonnull align 8 dereferenceable(96) %0) #13
  %.not = icmp eq ptr %5, null
  br i1 %.not, label %16, label %6

6:                                                ; preds = %1
  %7 = load ptr, ptr %5, align 8
  %8 = getelementptr inbounds i8, ptr %7, i64 72
  %9 = load ptr, ptr %8, align 8
  %10 = tail call noundef zeroext i1 %9(ptr noundef nonnull align 8 dereferenceable(24) %5) #13
  br i1 %10, label %11, label %16

11:                                               ; preds = %6
  %12 = load ptr, ptr %5, align 8
  %13 = getelementptr inbounds i8, ptr %12, i64 208
  %14 = load ptr, ptr %13, align 8
  %15 = tail call noundef ptr %14(ptr noundef nonnull align 8 dereferenceable(44) %5) #13
  br label %16

16:                                               ; preds = %1, %6, %11
  %.0 = phi ptr [ %15, %11 ], [ null, %6 ], [ null, %1 ]
  ret ptr %.0
}